target datalayout = "e-m:e-p270:32:32-p271:32:32-p272:64:64-i64:64-i128:128-f80:128-n8:16:32:64-S128"
target triple = "x86_64-pc-linux-gnu"

%struct.H58 = type { i64, i64, i32, i32, i32, i32, ptr, ptr, ptr, ptr }

; Function Attrs: alwaysinline nounwind uwtable
define internal i32 @BrotliUnalignedRead32(ptr noundef %0) #3 {
  %2 = alloca ptr, align 8
  %3 = alloca i32, align 4
  store ptr %0, ptr %2, align 8, !tbaa !48
  call void @llvm.lifetime.start.p0(i64 4, ptr %3) #10
  %4 = load ptr, ptr %2, align 8, !tbaa !48
  call void @llvm.memcpy.p0.p0.i64(ptr align 4 %3, ptr align 1 %4, i64 4, i1 false)
  %5 = load i32, ptr %3, align 4, !tbaa !8
  call void @llvm.lifetime.end.p0(i64 4, ptr %3) #10
  ret i32 %5
}

; Function Attrs: nounwind uwtable
define internal i32 @HashBytesH58(ptr noalias noundef %0, i32 noundef %1) #0 {
  %3 = alloca ptr, align 8
  %4 = alloca i32, align 4
  %5 = alloca i32, align 4
  store ptr %0, ptr %3, align 8, !tbaa !76
  store i32 %1, ptr %4, align 4, !tbaa !8
  call void @llvm.lifetime.start.p0(i64 4, ptr %5) #10
  %6 = load ptr, ptr %3, align 8, !tbaa !76
  %7 = call i32 @BrotliUnalignedRead32(ptr noundef %6)
  %8 = mul i32 %7, 506832829
  store i32 %8, ptr %5, align 4, !tbaa !8
  %9 = load i32, ptr %5, align 4, !tbaa !8
  %10 = load i32, ptr %4, align 4, !tbaa !8
  %11 = lshr i32 %9, %10
  call void @llvm.lifetime.end.p0(i64 4, ptr %5) #10
  ret i32 %11
}

; Function Attrs: nounwind uwtable
define internal void @PrepareH58(ptr noalias noundef %0, i32 noundef %1, i64 noundef %2, ptr noalias noundef %3) #0 {
  %5 = alloca ptr, align 8
  %6 = alloca i32, align 4
  %7 = alloca i64, align 8
  %8 = alloca ptr, align 8
  %9 = alloca ptr, align 8
  %10 = alloca i64, align 8
  %11 = alloca i64, align 8
  %12 = alloca i32, align 4
  %13 = alloca i32, align 4
  store ptr %0, ptr %5, align 8, !tbaa !214
  store i32 %1, ptr %6, align 4, !tbaa !8
  store i64 %2, ptr %7, align 8, !tbaa !75
  store ptr %3, ptr %8, align 8, !tbaa !76
  call void @llvm.lifetime.start.p0(i64 8, ptr %9) #10
  %14 = load ptr, ptr %5, align 8, !tbaa !214
  %15 = getelementptr inbounds nuw %struct.H58, ptr %14, i32 0, i32 7
  %16 = load ptr, ptr %15, align 8, !tbaa !279
  store ptr %16, ptr %9, align 8, !tbaa !119
  call void @llvm.lifetime.start.p0(i64 8, ptr %10) #10
  %17 = load ptr, ptr %5, align 8, !tbaa !214
  %18 = getelementptr inbounds nuw %struct.H58, ptr %17, i32 0, i32 0
  %19 = load i64, ptr %18, align 8, !tbaa !276
  %20 = lshr i64 %19, 6
  store i64 %20, ptr %10, align 8, !tbaa !75
  %21 = load i32, ptr %6, align 4, !tbaa !8
  %22 = icmp ne i32 %21, 0
  br i1 %22, label %23, label %50

23:                                               ; preds = %4
  %24 = load i64, ptr %7, align 8, !tbaa !75
  %25 = load i64, ptr %10, align 8, !tbaa !75
  %26 = icmp ule i64 %24, %25
  br i1 %26, label %27, label %50

27:                                               ; preds = %23
  call void @llvm.lifetime.start.p0(i64 8, ptr %11) #10
  store i64 0, ptr %11, align 8, !tbaa !75
  br label %28

28:                                               ; preds = %46, %27
  %29 = load i64, ptr %11, align 8, !tbaa !75
  %30 = load i64, ptr %7, align 8, !tbaa !75
  %31 = icmp ult i64 %29, %30
  br i1 %31, label %32, label %49

32:                                               ; preds = %28
  call void @llvm.lifetime.start.p0(i64 4, ptr %12) #10
  %33 = load ptr, ptr %8, align 8, !tbaa !76
  %34 = load i64, ptr %11, align 8, !tbaa !75
  %35 = getelementptr inbounds nuw i8, ptr %33, i64 %34
  %36 = load ptr, ptr %5, align 8, !tbaa !214
  %37 = getelementptr inbounds nuw %struct.H58, ptr %36, i32 0, i32 2
  %38 = load i32, ptr %37, align 8, !tbaa !275
  %39 = call i32 @HashBytesH58(ptr noundef %35, i32 noundef %38)
  store i32 %39, ptr %12, align 4, !tbaa !8
  call void @llvm.lifetime.start.p0(i64 4, ptr %13) #10
  %40 = load i32, ptr %12, align 4, !tbaa !8
  %41 = lshr i32 %40, 8
  store i32 %41, ptr %13, align 4, !tbaa !8
  %42 = load ptr, ptr %9, align 8, !tbaa !119
  %43 = load i32, ptr %13, align 4, !tbaa !8
  %44 = zext i32 %43 to i64
  %45 = getelementptr inbounds nuw i16, ptr %42, i64 %44
  store i16 -1, ptr %45, align 2, !tbaa !173
  call void @llvm.lifetime.end.p0(i64 4, ptr %13) #10
  call void @llvm.lifetime.end.p0(i64 4, ptr %12) #10
  br label %46

46:                                               ; preds = %32
  %47 = load i64, ptr %11, align 8, !tbaa !75
  %48 = add i64 %47, 1
  store i64 %48, ptr %11, align 8, !tbaa !75
  br label %28, !llvm.loop !325

49:                                               ; preds = %28
  call void @llvm.lifetime.end.p0(i64 8, ptr %11) #10
  br label %56

50:                                               ; preds = %23, %4
  %51 = load ptr, ptr %9, align 8, !tbaa !119
  %52 = load ptr, ptr %5, align 8, !tbaa !214
  %53 = getelementptr inbounds nuw %struct.H58, ptr %52, i32 0, i32 0
  %54 = load i64, ptr %53, align 8, !tbaa !276
  %55 = mul i64 %54, 2
  call void @llvm.memset.p0.i64(ptr align 2 %51, i8 -1, i64 %55, i1 false)
  br label %56

56:                                               ; preds = %50, %49
  call void @llvm.lifetime.end.p0(i64 8, ptr %10) #10
  call void @llvm.lifetime.end.p0(i64 8, ptr %9) #10
  ret void
}